(lp0
F0.12069894478591857
aF-0.08099740791473742
aF0.09997525960333245
aF-0.010732043897871548
aF0.09366165299791834
aF0.05328129596665186
aF1.288557838018129
aF0.09835642985362555
aF-0.05544199041240365
aF0.11318853882853686
aF-0.005343038546094761
aF0.48572992466800546
aF0.02513460421028137
aF-0.7973445277904981
a.