(lp0
F-18.48118425161847
aF15.633943975203834
aF0.0
aF1.621928887772135
aF-0.607480967047731
aF4.057699607308533
aF3.5724405037300397
aF0.4633379603405324
aF3.606755976675814
aF3.734731564441665
aF0.3362193179631191
aF-3.6377249270593874
aF-1.2544311564746986
aF-1.2930596873308282
aF0.6316884029993174
aF3.6376210690678388
aF-3.3822376845097732
aF0.7802579311258963
aF2.2275388730390344
aF-4.85992519037731
aF0.20624239340843178
aF0.3242226802897525
aF-3.495920213183604
aF2.919038495893179
aF1.7532728869302252
aF1.996092662872511
aF0.1462196032736666
aF-5.547338626722818
aF-0.29298797470498106
aF2.45274614174991
aF3.825143134860249
aF1.322315598320917
aF0.1315785201701268
aF-0.3316657577183797
aF-3.0602359559408012
a.